target datalayout = "e-m:e-p270:32:32-p271:32:32-p272:64:64-i64:64-i128:128-f80:128-n8:16:32:64-S128"
target triple = "x86_64-pc-linux-gnu"

%class.Klass = type <{ %class.Metadata, i32, i32, i32, i32, ptr, ptr, ptr, [8 x ptr], %class.OopHandle, ptr, ptr, ptr, ptr, ptr, i32, %class.AccessFlags, i64, i64, i8, i8, i16, i16, [2 x i8], i32, [4 x i8] }>
%class.Metadata = type { ptr }
%class.OopHandle = type { ptr }
%class.AccessFlags = type { i32 }
%class.VerificationType = type { %union.anon.3 }
%union.anon.3 = type { ptr }
%class.InstanceKlass = type { %class.Klass.base, ptr, ptr, ptr, ptr, ptr, ptr, ptr, ptr, ptr, ptr, i32, i32, i32, i32, i16, i16, i16, i16, i8, i8, i8, i8, %class.InstanceKlassFlags, ptr, ptr, ptr, ptr, ptr, i64, ptr, ptr, ptr, ptr, ptr, ptr, ptr, ptr, ptr, ptr, ptr, ptr, ptr }
%class.Klass.base = type <{ %class.Metadata, i32, i32, i32, i32, ptr, ptr, ptr, [8 x ptr], %class.OopHandle, ptr, ptr, ptr, ptr, ptr, i32, %class.AccessFlags, i64, i64, i8, i8, i16, i16, [2 x i8], i32 }>
%class.InstanceKlassFlags = type <{ i16, i8, i8 }>
%class.Array.16 = type { i32, [1 x ptr] }
%class.anon.57 = type { i8 }

; Function Attrs: mustprogress nounwind uwtable
define linkonce_odr hidden noundef i64 @_ZZN5ArrayIP13InstanceKlassE20base_offset_in_bytesEvENKUlvE_clEv(ptr noundef nonnull align 1 dereferenceable(1) %0) #1 comdat align 2 {
  %2 = alloca ptr, align 8
  %3 = alloca [16 x i8], align 16
  %4 = alloca ptr, align 8
  %5 = alloca ptr, align 8
  store ptr %0, ptr %2, align 8
  %6 = getelementptr inbounds [16 x i8], ptr %3, i64 0, i64 0
  store ptr %6, ptr %4, align 8
  %7 = load ptr, ptr %4, align 8
  %8 = getelementptr inbounds %class.Array.16, ptr %7, i32 0, i32 1
  store ptr %8, ptr %5, align 8
  %9 = load ptr, ptr %5, align 8
  %10 = getelementptr inbounds [16 x i8], ptr %3, i64 0, i64 0
  %11 = ptrtoint ptr %9 to i64
  %12 = ptrtoint ptr %10 to i64
  %13 = sub i64 %11, %12
  ret i64 %13
}

; Function Attrs: mustprogress nounwind uwtable
define linkonce_odr hidden noundef i32 @_ZN5ArrayIP13InstanceKlassE20base_offset_in_bytesEv() #1 comdat align 2 {
  %1 = alloca %class.anon.57, align 1
  %2 = call noundef i64 @_ZZN5ArrayIP13InstanceKlassE20base_offset_in_bytesEvENKUlvE_clEv(ptr noundef nonnull align 1 dereferenceable(1) %1)
  %3 = trunc i64 %2 to i32
  ret i32 %3
}

; Function Attrs: mustprogress nounwind uwtable
define linkonce_odr hidden void @_ZN16VerificationTypeC2Em(ptr noundef nonnull align 8 dereferenceable(8) %0, i64 noundef %1) unnamed_addr #1 comdat align 2 {
  %3 = alloca ptr, align 8
  %4 = alloca i64, align 8
  store ptr %0, ptr %3, align 8
  store i64 %1, ptr %4, align 8
  %5 = load ptr, ptr %3, align 8
  %6 = load i64, ptr %4, align 8
  %7 = getelementptr inbounds %class.VerificationType, ptr %5, i32 0, i32 0
  store i64 %6, ptr %7, align 8
  ret void
}

; Function Attrs: mustprogress nounwind uwtable
define linkonce_odr hidden noundef ptr @_ZNK5ArrayIP13InstanceKlassE4dataEv(ptr noundef nonnull align 8 dereferenceable(16) %0) #1 comdat align 2 {
  %2 = alloca ptr, align 8
  store ptr %0, ptr %2, align 8
  %3 = load ptr, ptr %2, align 8
  %4 = call noundef i32 @_ZN5ArrayIP13InstanceKlassE20base_offset_in_bytesEv()
  %5 = sext i32 %4 to i64
  %6 = getelementptr inbounds i8, ptr %3, i64 %5
  ret ptr %6
}

; Function Attrs: mustprogress nounwind uwtable
define linkonce_odr hidden noundef ptr @_ZNK16VerificationType4nameEv(ptr noundef nonnull align 8 dereferenceable(8) %0) #1 comdat align 2 {
  %2 = alloca ptr, align 8
  store ptr %0, ptr %2, align 8
  %3 = load ptr, ptr %2, align 8
  %4 = getelementptr inbounds %class.VerificationType, ptr %3, i32 0, i32 0
  %5 = load ptr, ptr %4, align 8
  ret ptr %5
}

; Function Attrs: mustprogress nounwind uwtable
define linkonce_odr hidden noundef zeroext i1 @_ZNK16VerificationType7is_nullEv(ptr noundef nonnull align 8 dereferenceable(8) %0) #1 comdat align 2 {
  %2 = alloca ptr, align 8
  store ptr %0, ptr %2, align 8
  %3 = load ptr, ptr %2, align 8
  %4 = getelementptr inbounds %class.VerificationType, ptr %3, i32 0, i32 0
  %5 = load i64, ptr %4, align 8
  %6 = icmp eq i64 %5, 0
  ret i1 %6
}

; Function Attrs: mustprogress nounwind uwtable
define linkonce_odr hidden noundef zeroext i1 @_ZNK16VerificationType12is_referenceEv(ptr noundef nonnull align 8 dereferenceable(8) %0) #1 comdat align 2 {
  %2 = alloca ptr, align 8
  store ptr %0, ptr %2, align 8
  %3 = load ptr, ptr %2, align 8
  %4 = getelementptr inbounds %class.VerificationType, ptr %3, i32 0, i32 0
  %5 = load i64, ptr %4, align 8
  %6 = and i64 %5, 3
  %7 = icmp eq i64 %6, 0
  ret i1 %7
}

; Function Attrs: mustprogress nounwind uwtable
define linkonce_odr hidden ptr @_ZN16VerificationType14reference_typeEP6Symbol(ptr noundef %0) #1 comdat align 2 {
  %2 = alloca %class.VerificationType, align 8
  %3 = alloca ptr, align 8
  store ptr %0, ptr %3, align 8
  %4 = load ptr, ptr %3, align 8
  %5 = ptrtoint ptr %4 to i64
  call void @_ZN16VerificationTypeC2Em(ptr noundef nonnull align 8 dereferenceable(8) %2, i64 noundef %5)
  %6 = getelementptr inbounds %class.VerificationType, ptr %2, i32 0, i32 0
  %7 = getelementptr inbounds %union.anon.3, ptr %6, i32 0, i32 0
  %8 = load ptr, ptr %7, align 8
  ret ptr %8
}

; Function Attrs: mustprogress nounwind uwtable
define linkonce_odr hidden noundef ptr @_ZNK5Klass4nameEv(ptr noundef nonnull align 8 dereferenceable(196) %0) #1 comdat align 2 {
  %2 = alloca ptr, align 8
  store ptr %0, ptr %2, align 8
  %3 = load ptr, ptr %2, align 8
  %4 = getelementptr inbounds %class.Klass, ptr %3, i32 0, i32 5
  %5 = load ptr, ptr %4, align 8
  ret ptr %5
}

; Function Attrs: mustprogress nounwind uwtable
define linkonce_odr hidden noundef ptr @_ZNK5ArrayIP13InstanceKlassE2atEi(ptr noundef nonnull align 8 dereferenceable(16) %0, i32 noundef %1) #1 comdat align 2 {
  %3 = alloca ptr, align 8
  %4 = alloca i32, align 4
  store ptr %0, ptr %3, align 8
  store i32 %1, ptr %4, align 4
  %5 = load ptr, ptr %3, align 8
  %6 = call noundef ptr @_ZNK5ArrayIP13InstanceKlassE4dataEv(ptr noundef nonnull align 8 dereferenceable(16) %5)
  %7 = load i32, ptr %4, align 4
  %8 = sext i32 %7 to i64
  %9 = getelementptr inbounds ptr, ptr %6, i64 %8
  %10 = load ptr, ptr %9, align 8
  ret ptr %10
}

; Function Attrs: mustprogress nounwind uwtable
define linkonce_odr hidden noundef i32 @_ZNK5ArrayIP13InstanceKlassE6lengthEv(ptr noundef nonnull align 8 dereferenceable(16) %0) #1 comdat align 2 {
  %2 = alloca ptr, align 8
  store ptr %0, ptr %2, align 8
  %3 = load ptr, ptr %2, align 8
  %4 = getelementptr inbounds %class.Array.16, ptr %3, i32 0, i32 0
  %5 = load i32, ptr %4, align 8
  ret i32 %5
}

; Function Attrs: mustprogress nounwind uwtable
define linkonce_odr hidden noundef ptr @_ZNK13InstanceKlass16local_interfacesEv(ptr noundef nonnull align 8 dereferenceable(464) %0) #1 comdat align 2 {
  %2 = alloca ptr, align 8
  store ptr %0, ptr %2, align 8
  %3 = load ptr, ptr %2, align 8
  %4 = getelementptr inbounds %class.InstanceKlass, ptr %3, i32 0, i32 37
  %5 = load ptr, ptr %4, align 8
  ret ptr %5
}

; Function Attrs: mustprogress nounwind uwtable
define linkonce_odr hidden noundef zeroext i1 @_ZNK16VerificationType6equalsERKS_(ptr noundef nonnull align 8 dereferenceable(8) %0, ptr noundef nonnull align 8 dereferenceable(8) %1) #1 comdat align 2 {
  %3 = alloca ptr, align 8
  %4 = alloca ptr, align 8
  store ptr %0, ptr %3, align 8
  store ptr %1, ptr %4, align 8
  %5 = load ptr, ptr %3, align 8
  %6 = getelementptr inbounds %class.VerificationType, ptr %5, i32 0, i32 0
  %7 = load i64, ptr %6, align 8
  %8 = load ptr, ptr %4, align 8
  %9 = getelementptr inbounds %class.VerificationType, ptr %8, i32 0, i32 0
  %10 = load i64, ptr %9, align 8
  %11 = icmp eq i64 %7, %10
  br i1 %11, label %29, label %12

12:                                               ; preds = %2
  %13 = call noundef zeroext i1 @_ZNK16VerificationType12is_referenceEv(ptr noundef nonnull align 8 dereferenceable(8) %5)
  br i1 %13, label %14, label %27

14:                                               ; preds = %12
  %15 = load ptr, ptr %4, align 8
  %16 = call noundef zeroext i1 @_ZNK16VerificationType12is_referenceEv(ptr noundef nonnull align 8 dereferenceable(8) %15)
  br i1 %16, label %17, label %27

17:                                               ; preds = %14
  %18 = call noundef zeroext i1 @_ZNK16VerificationType7is_nullEv(ptr noundef nonnull align 8 dereferenceable(8) %5)
  br i1 %18, label %27, label %19

19:                                               ; preds = %17
  %20 = load ptr, ptr %4, align 8
  %21 = call noundef zeroext i1 @_ZNK16VerificationType7is_nullEv(ptr noundef nonnull align 8 dereferenceable(8) %20)
  br i1 %21, label %27, label %22

22:                                               ; preds = %19
  %23 = call noundef ptr @_ZNK16VerificationType4nameEv(ptr noundef nonnull align 8 dereferenceable(8) %5)
  %24 = load ptr, ptr %4, align 8
  %25 = call noundef ptr @_ZNK16VerificationType4nameEv(ptr noundef nonnull align 8 dereferenceable(8) %24)
  %26 = icmp eq ptr %23, %25
  br label %27

27:                                               ; preds = %22, %19, %17, %14, %12
  %28 = phi i1 [ false, %19 ], [ false, %17 ], [ false, %14 ], [ false, %12 ], [ %26, %22 ]
  br label %29

29:                                               ; preds = %27, %2
  %30 = phi i1 [ true, %2 ], [ %28, %27 ]
  ret i1 %30
}

; Function Attrs: mustprogress nounwind uwtable
define hidden noundef zeroext i1 @_ZN13ClassVerifier27is_same_or_direct_interfaceEP13InstanceKlass16VerificationTypeS2_(ptr noundef nonnull align 8 dereferenceable(8192) %0, ptr noundef %1, ptr %2, ptr %3) #1 align 2 {
  %5 = alloca i1, align 1
  %6 = alloca %class.VerificationType, align 8
  %7 = alloca %class.VerificationType, align 8
  %8 = alloca ptr, align 8
  %9 = alloca ptr, align 8
  %10 = alloca ptr, align 8
  %11 = alloca i32, align 4
  %12 = alloca ptr, align 8
  %13 = alloca %class.VerificationType, align 8
  %14 = getelementptr inbounds %class.VerificationType, ptr %6, i32 0, i32 0
  %15 = getelementptr inbounds %union.anon.3, ptr %14, i32 0, i32 0
  store ptr %2, ptr %15, align 8
  %16 = getelementptr inbounds %class.VerificationType, ptr %7, i32 0, i32 0
  %17 = getelementptr inbounds %union.anon.3, ptr %16, i32 0, i32 0
  store ptr %3, ptr %17, align 8
  store ptr %0, ptr %8, align 8
  store ptr %1, ptr %9, align 8
  %18 = call noundef zeroext i1 @_ZNK16VerificationType6equalsERKS_(ptr noundef nonnull align 8 dereferenceable(8) %7, ptr noundef nonnull align 8 dereferenceable(8) %6)
  br i1 %18, label %19, label %20

19:                                               ; preds = %4
  store i1 true, ptr %5, align 1
  br label %48

20:                                               ; preds = %4
  %21 = load ptr, ptr %9, align 8
  %22 = call noundef ptr @_ZNK13InstanceKlass16local_interfacesEv(ptr noundef nonnull align 8 dereferenceable(464) %21)
  store ptr %22, ptr %10, align 8
  %23 = load ptr, ptr %10, align 8
  %24 = icmp ne ptr %23, null
  br i1 %24, label %25, label %47

25:                                               ; preds = %20
  store i32 0, ptr %11, align 4
  br label %26

26:                                               ; preds = %43, %25
  %27 = load i32, ptr %11, align 4
  %28 = load ptr, ptr %10, align 8
  %29 = call noundef i32 @_ZNK5ArrayIP13InstanceKlassE6lengthEv(ptr noundef nonnull align 8 dereferenceable(16) %28)
  %30 = icmp slt i32 %27, %29
  br i1 %30, label %31, label %46

31:                                               ; preds = %26
  %32 = load ptr, ptr %10, align 8
  %33 = load i32, ptr %11, align 4
  %34 = call noundef ptr @_ZNK5ArrayIP13InstanceKlassE2atEi(ptr noundef nonnull align 8 dereferenceable(16) %32, i32 noundef %33)
  store ptr %34, ptr %12, align 8
  %35 = load ptr, ptr %12, align 8
  %36 = call noundef ptr @_ZNK5Klass4nameEv(ptr noundef nonnull align 8 dereferenceable(196) %35)
  %37 = call ptr @_ZN16VerificationType14reference_typeEP6Symbol(ptr noundef %36)
  %38 = getelementptr inbounds %class.VerificationType, ptr %13, i32 0, i32 0
  %39 = getelementptr inbounds %union.anon.3, ptr %38, i32 0, i32 0
  store ptr %37, ptr %39, align 8
  %40 = call noundef zeroext i1 @_ZNK16VerificationType6equalsERKS_(ptr noundef nonnull align 8 dereferenceable(8) %7, ptr noundef nonnull align 8 dereferenceable(8) %13)
  br i1 %40, label %41, label %42

41:                                               ; preds = %31
  store i1 true, ptr %5, align 1
  br label %48

42:                                               ; preds = %31
  br label %43

43:                                               ; preds = %42
  %44 = load i32, ptr %11, align 4
  %45 = add nsw i32 %44, 1
  store i32 %45, ptr %11, align 4
  br label %26, !llvm.loop !39

46:                                               ; preds = %26
  br label %47

47:                                               ; preds = %46, %20
  store i1 false, ptr %5, align 1
  br label %48

48:                                               ; preds = %47, %41, %19
  %49 = load i1, ptr %5, align 1
  ret i1 %49
}