; Function Attrs: mustprogress nofree norecurse nosync nounwind willreturn memory(read, inaccessiblemem: none) uwtable
define hidden noundef zeroext i1 @_ZN13ClassVerifier27is_same_or_direct_interfaceEP13InstanceKlass16VerificationTypeS2_(ptr nocapture noundef nonnull readnone align 8 dereferenceable(8192) %0, ptr nocapture noundef readonly %1, ptr readnone %2, ptr readnone %3) local_unnamed_addr #12 align 2 {
  %5 = icmp eq ptr %3, %2
  br i1 %5, label %_ZNK16VerificationType6equalsERKS_.exit.thread, label %_ZNK16VerificationType6equalsERKS_.exit

_ZNK16VerificationType6equalsERKS_.exit:          ; preds = %4
  %6 = getelementptr inbounds i8, ptr %1, i64 416
  %7 = load ptr, ptr %6, align 8
  %.not = icmp eq ptr %7, null
  br i1 %.not, label %_ZNK16VerificationType6equalsERKS_.exit.thread, label %.preheader

.preheader:                                       ; preds = %_ZNK16VerificationType6equalsERKS_.exit
  %8 = getelementptr inbounds i8, ptr %7, i64 8
  %9 = load i32, ptr %7, align 8
  %10 = icmp sgt i32 %9, 0
  br i1 %10, label %_ZNK16VerificationType6equalsERKS_.exit14.preheader, label %_ZNK16VerificationType6equalsERKS_.exit.thread

_ZNK16VerificationType6equalsERKS_.exit14.preheader: ; preds = %.preheader
  %wide.trip.count = zext nneg i32 %9 to i64
  br label %_ZNK16VerificationType6equalsERKS_.exit14

_ZNK16VerificationType6equalsERKS_.exit14:        ; preds = %_ZNK16VerificationType6equalsERKS_.exit14, %_ZNK16VerificationType6equalsERKS_.exit14.preheader
  %indvars.iv = phi i64 [ 0, %_ZNK16VerificationType6equalsERKS_.exit14.preheader ], [ %indvars.iv.next, %_ZNK16VerificationType6equalsERKS_.exit14 ]
  %11 = getelementptr inbounds ptr, ptr %8, i64 %indvars.iv
  %12 = load ptr, ptr %11, align 8
  %13 = getelementptr inbounds i8, ptr %12, i64 24
  %14 = load ptr, ptr %13, align 8
  %15 = icmp eq ptr %14, %3
  %indvars.iv.next = add nuw nsw i64 %indvars.iv, 1
  %exitcond.not = icmp eq i64 %indvars.iv.next, %wide.trip.count
  %or.cond = select i1 %15, i1 true, i1 %exitcond.not
  br i1 %or.cond, label %_ZNK16VerificationType6equalsERKS_.exit.thread, label %_ZNK16VerificationType6equalsERKS_.exit14, !llvm.loop !318

_ZNK16VerificationType6equalsERKS_.exit.thread:   ; preds = %_ZNK16VerificationType6equalsERKS_.exit14, %.preheader, %4, %_ZNK16VerificationType6equalsERKS_.exit
  %.0 = phi i1 [ false, %_ZNK16VerificationType6equalsERKS_.exit ], [ true, %4 ], [ false, %.preheader ], [ %15, %_ZNK16VerificationType6equalsERKS_.exit14 ]
  ret i1 %.0
}